target datalayout = "e-m:e-p270:32:32-p271:32:32-p272:64:64-i64:64-i128:128-f80:128-n8:16:32:64-S128"
target triple = "x86_64-pc-linux-gnu"

%struct.strbuf = type { i64, i64, ptr }
%struct.slot_results = type { i32, i64, i64, i64 }

@.str.27 = private unnamed_addr constant [1 x i8] zeroinitializer, align 1
@git_gettext_enabled = external global i32, align 4
@curl_errorstr = external global [256 x i8], align 16
@__const.run_slot.msg = private unnamed_addr constant %struct.strbuf { i64 0, i64 0, ptr @strbuf_slopbuf }, align 8
@.str.99 = private unnamed_addr constant [9 x i8] c"HTTP %ld\00", align 1
@.str.100 = private unnamed_addr constant [8 x i8] c"curl %d\00", align 1
@.str.101 = private unnamed_addr constant [15 x i8] c"RPC failed; %s\00", align 1

; Function Attrs: inlinehint nounwind uwtable
define internal i64 @strbuf_avail(ptr noundef %0) #4 {
  %2 = alloca ptr, align 8
  store ptr %0, ptr %2, align 8, !tbaa !35
  %3 = load ptr, ptr %2, align 8, !tbaa !35
  %4 = getelementptr inbounds nuw %struct.strbuf, ptr %3, i32 0, i32 0
  %5 = load i64, ptr %4, align 8, !tbaa !77
  %6 = icmp ne i64 %5, 0
  br i1 %6, label %7, label %16

7:                                                ; preds = %1
  %8 = load ptr, ptr %2, align 8, !tbaa !35
  %9 = getelementptr inbounds nuw %struct.strbuf, ptr %8, i32 0, i32 0
  %10 = load i64, ptr %9, align 8, !tbaa !77
  %11 = load ptr, ptr %2, align 8, !tbaa !35
  %12 = getelementptr inbounds nuw %struct.strbuf, ptr %11, i32 0, i32 1
  %13 = load i64, ptr %12, align 8, !tbaa !32
  %14 = sub i64 %10, %13
  %15 = sub i64 %14, 1
  br label %17

16:                                               ; preds = %1
  br label %17

17:                                               ; preds = %16, %7
  %18 = phi i64 [ %15, %7 ], [ 0, %16 ]
  ret i64 %18
}

; Function Attrs: inlinehint nounwind uwtable
define internal i32 @const_error() #4 {
  ret i32 -1
}

; Function Attrs: inlinehint nounwind uwtable
define internal ptr @_(ptr noundef %0) #4 {
  %2 = alloca ptr, align 8
  %3 = alloca ptr, align 8
  store ptr %0, ptr %3, align 8, !tbaa !18
  %4 = load ptr, ptr %3, align 8, !tbaa !18
  %5 = load i8, ptr %4, align 1, !tbaa !34
  %6 = icmp ne i8 %5, 0
  br i1 %6, label %8, label %7

7:                                                ; preds = %1
  store ptr @.str.27, ptr %2, align 8
  br label %16

8:                                                ; preds = %1
  %9 = load i32, ptr @git_gettext_enabled, align 4, !tbaa !4
  %10 = icmp ne i32 %9, 0
  br i1 %10, label %13, label %11

11:                                               ; preds = %8
  %12 = load ptr, ptr %3, align 8, !tbaa !18
  store ptr %12, ptr %2, align 8
  br label %16

13:                                               ; preds = %8
  %14 = load ptr, ptr %3, align 8, !tbaa !18
  %15 = call ptr @dcgettext(ptr noundef null, ptr noundef %14, i32 noundef 5) #10
  store ptr %15, ptr %2, align 8
  br label %16

16:                                               ; preds = %13, %11, %7
  %17 = load ptr, ptr %2, align 8
  ret ptr %17
}

; Function Attrs: inlinehint nounwind uwtable
define internal void @strbuf_addstr(ptr noundef %0, ptr noundef %1) #4 {
  %3 = alloca ptr, align 8
  %4 = alloca ptr, align 8
  store ptr %0, ptr %3, align 8, !tbaa !35
  store ptr %1, ptr %4, align 8, !tbaa !18
  %5 = load ptr, ptr %3, align 8, !tbaa !35
  %6 = load ptr, ptr %4, align 8, !tbaa !18
  %7 = load ptr, ptr %4, align 8, !tbaa !18
  %8 = call i64 @strlen(ptr noundef %7) #12
  call void @strbuf_add(ptr noundef %5, ptr noundef %6, i64 noundef %8)
  ret void
}

; Function Attrs: inlinehint nounwind uwtable
define internal void @strbuf_addch(ptr noundef %0, i32 noundef %1) #4 {
  %3 = alloca ptr, align 8
  %4 = alloca i32, align 4
  store ptr %0, ptr %3, align 8, !tbaa !35
  store i32 %1, ptr %4, align 4, !tbaa !4
  %5 = load ptr, ptr %3, align 8, !tbaa !35
  %6 = call i64 @strbuf_avail(ptr noundef %5)
  %7 = icmp ne i64 %6, 0
  br i1 %7, label %10, label %8

8:                                                ; preds = %2
  %9 = load ptr, ptr %3, align 8, !tbaa !35
  call void @strbuf_grow(ptr noundef %9, i64 noundef 1)
  br label %10

10:                                               ; preds = %8, %2
  %11 = load i32, ptr %4, align 4, !tbaa !4
  %12 = trunc i32 %11 to i8
  %13 = load ptr, ptr %3, align 8, !tbaa !35
  %14 = getelementptr inbounds nuw %struct.strbuf, ptr %13, i32 0, i32 2
  %15 = load ptr, ptr %14, align 8, !tbaa !28
  %16 = load ptr, ptr %3, align 8, !tbaa !35
  %17 = getelementptr inbounds nuw %struct.strbuf, ptr %16, i32 0, i32 1
  %18 = load i64, ptr %17, align 8, !tbaa !32
  %19 = add i64 %18, 1
  store i64 %19, ptr %17, align 8, !tbaa !32
  %20 = getelementptr inbounds nuw i8, ptr %15, i64 %18
  store i8 %12, ptr %20, align 1, !tbaa !34
  %21 = load ptr, ptr %3, align 8, !tbaa !35
  %22 = getelementptr inbounds nuw %struct.strbuf, ptr %21, i32 0, i32 2
  %23 = load ptr, ptr %22, align 8, !tbaa !28
  %24 = load ptr, ptr %3, align 8, !tbaa !35
  %25 = getelementptr inbounds nuw %struct.strbuf, ptr %24, i32 0, i32 1
  %26 = load i64, ptr %25, align 8, !tbaa !32
  %27 = getelementptr inbounds nuw i8, ptr %23, i64 %26
  store i8 0, ptr %27, align 1, !tbaa !34
  ret void
}

; Function Attrs: nounwind uwtable
define internal i32 @run_slot(ptr noundef %0, ptr noundef %1) #0 {
  %3 = alloca ptr, align 8
  %4 = alloca ptr, align 8
  %5 = alloca i32, align 4
  %6 = alloca %struct.slot_results, align 8
  %7 = alloca %struct.strbuf, align 8
  store ptr %0, ptr %3, align 8, !tbaa !130
  store ptr %1, ptr %4, align 8, !tbaa !154
  call void @llvm.lifetime.start.p0(i64 4, ptr %5) #10
  call void @llvm.lifetime.start.p0(i64 32, ptr %6) #10
  %8 = load ptr, ptr %4, align 8, !tbaa !154
  %9 = icmp ne ptr %8, null
  br i1 %9, label %11, label %10

10:                                               ; preds = %2
  store ptr %6, ptr %4, align 8, !tbaa !154
  br label %11

11:                                               ; preds = %10, %2
  %12 = load ptr, ptr %3, align 8, !tbaa !130
  %13 = load ptr, ptr %4, align 8, !tbaa !154
  %14 = call i32 @run_one_slot(ptr noundef %12, ptr noundef %13)
  store i32 %14, ptr %5, align 4, !tbaa !4
  %15 = load i32, ptr %5, align 4, !tbaa !4
  %16 = icmp ne i32 %15, 0
  br i1 %16, label %17, label %58

17:                                               ; preds = %11
  %18 = load i32, ptr %5, align 4, !tbaa !4
  %19 = icmp ne i32 %18, 4
  br i1 %19, label %20, label %58

20:                                               ; preds = %17
  call void @llvm.lifetime.start.p0(i64 24, ptr %7) #10
  call void @llvm.memcpy.p0.p0.i64(ptr align 8 %7, ptr align 8 @__const.run_slot.msg, i64 24, i1 false)
  %21 = load ptr, ptr %4, align 8, !tbaa !154
  %22 = getelementptr inbounds nuw %struct.slot_results, ptr %21, i32 0, i32 1
  %23 = load i64, ptr %22, align 8, !tbaa !157
  %24 = icmp ne i64 %23, 0
  br i1 %24, label %25, label %34

25:                                               ; preds = %20
  %26 = load ptr, ptr %4, align 8, !tbaa !154
  %27 = getelementptr inbounds nuw %struct.slot_results, ptr %26, i32 0, i32 1
  %28 = load i64, ptr %27, align 8, !tbaa !157
  %29 = icmp ne i64 %28, 200
  br i1 %29, label %30, label %34

30:                                               ; preds = %25
  %31 = load ptr, ptr %4, align 8, !tbaa !154
  %32 = getelementptr inbounds nuw %struct.slot_results, ptr %31, i32 0, i32 1
  %33 = load i64, ptr %32, align 8, !tbaa !157
  call void (ptr, ptr, ...) @strbuf_addf(ptr noundef %7, ptr noundef @.str.99, i64 noundef %33)
  br label %34

34:                                               ; preds = %30, %25, %20
  %35 = load ptr, ptr %4, align 8, !tbaa !154
  %36 = getelementptr inbounds nuw %struct.slot_results, ptr %35, i32 0, i32 0
  %37 = load i32, ptr %36, align 8, !tbaa !158
  %38 = icmp ne i32 %37, 0
  br i1 %38, label %39, label %52

39:                                               ; preds = %34
  %40 = getelementptr inbounds nuw %struct.strbuf, ptr %7, i32 0, i32 1
  %41 = load i64, ptr %40, align 8, !tbaa !32
  %42 = icmp ne i64 %41, 0
  br i1 %42, label %43, label %44

43:                                               ; preds = %39
  call void @strbuf_addch(ptr noundef %7, i32 noundef 32)
  br label %44

44:                                               ; preds = %43, %39
  %45 = load ptr, ptr %4, align 8, !tbaa !154
  %46 = getelementptr inbounds nuw %struct.slot_results, ptr %45, i32 0, i32 0
  %47 = load i32, ptr %46, align 8, !tbaa !158
  call void (ptr, ptr, ...) @strbuf_addf(ptr noundef %7, ptr noundef @.str.100, i32 noundef %47)
  %48 = load i8, ptr @curl_errorstr, align 16, !tbaa !34
  %49 = icmp ne i8 %48, 0
  br i1 %49, label %50, label %51

50:                                               ; preds = %44
  call void @strbuf_addch(ptr noundef %7, i32 noundef 32)
  call void @strbuf_addstr(ptr noundef %7, ptr noundef @curl_errorstr)
  br label %51

51:                                               ; preds = %50, %44
  br label %52

52:                                               ; preds = %51, %34
  %53 = call ptr @_(ptr noundef @.str.101)
  %54 = getelementptr inbounds nuw %struct.strbuf, ptr %7, i32 0, i32 2
  %55 = load ptr, ptr %54, align 8, !tbaa !28
  %56 = call i32 (ptr, ...) @error(ptr noundef %53, ptr noundef %55)
  %57 = call i32 @const_error()
  call void @strbuf_release(ptr noundef %7)
  call void @llvm.lifetime.end.p0(i64 24, ptr %7) #10
  br label %58

58:                                               ; preds = %52, %17, %11
  %59 = load i32, ptr %5, align 4, !tbaa !4
  call void @llvm.lifetime.end.p0(i64 32, ptr %6) #10
  call void @llvm.lifetime.end.p0(i64 4, ptr %5) #10
  ret i32 %59
}