; Function Attrs: nounwind uwtable
define internal fastcc i32 @run_slot(ptr noundef %0, ptr noundef %1) unnamed_addr #0 {
  %3 = alloca %struct.slot_results, align 8
  %4 = alloca %struct.strbuf, align 8
  call void @llvm.lifetime.start.p0(i64 32, ptr nonnull %3) #17
  %.not = icmp eq ptr %1, null
  %spec.store.select = select i1 %.not, ptr %3, ptr %1
  %5 = call i32 @run_one_slot(ptr noundef %0, ptr noundef nonnull %spec.store.select) #17
  %6 = and i32 %5, -5
  %or.cond.not = icmp eq i32 %6, 0
  br i1 %or.cond.not, label %45, label %7

7:                                                ; preds = %2
  call void @llvm.lifetime.start.p0(i64 24, ptr nonnull %4) #17
  call void @llvm.memcpy.p0.p0.i64(ptr noundef nonnull align 8 dereferenceable(24) %4, ptr noundef nonnull align 8 dereferenceable(24) @__const.stateless_connect.buf, i64 24, i1 false)
  %spec.store.select.sroa.sel.v.sroa.sel.v.sroa.sel.v = select i1 %.not, ptr %3, ptr %1
  %spec.store.select.sroa.sel.v.sroa.sel.v.sroa.sel = getelementptr inbounds nuw i8, ptr %spec.store.select.sroa.sel.v.sroa.sel.v.sroa.sel.v, i64 8
  %8 = load i64, ptr %spec.store.select.sroa.sel.v.sroa.sel.v.sroa.sel, align 8, !tbaa !145
  switch i64 %8, label %9 [
    i64 0, label %10
    i64 200, label %10
  ]

9:                                                ; preds = %7
  call void (ptr, ptr, ...) @strbuf_addf(ptr noundef nonnull %4, ptr noundef nonnull @.str.99, i64 noundef %8) #17
  br label %10

10:                                               ; preds = %7, %7, %9
  %11 = load i32, ptr %spec.store.select, align 8, !tbaa !146
  %.not13 = icmp eq i32 %11, 0
  br i1 %.not13, label %38, label %12

12:                                               ; preds = %10
  %13 = getelementptr inbounds nuw i8, ptr %4, i64 8
  %14 = load i64, ptr %13, align 8, !tbaa !31
  %.not14 = icmp eq i64 %14, 0
  br i1 %.not14, label %24, label %15

15:                                               ; preds = %12
  %16 = load i64, ptr %4, align 8, !tbaa !96
  %.not.i.i = icmp eq i64 %16, 0
  %.neg.i = add i64 %14, 1
  %.not.i = icmp eq i64 %16, %.neg.i
  %or.cond = or i1 %.not.i.i, %.not.i
  br i1 %or.cond, label %strbuf_avail.exit.thread.i, label %strbuf_addch.exit

strbuf_avail.exit.thread.i:                       ; preds = %15
  call void @strbuf_grow(ptr noundef nonnull %4, i64 noundef 1) #17
  %.pre.i = load i64, ptr %13, align 8, !tbaa !31
  %.pre7.i = add i64 %.pre.i, 1
  br label %strbuf_addch.exit

strbuf_addch.exit:                                ; preds = %15, %strbuf_avail.exit.thread.i
  %.pre-phi.i = phi i64 [ %.pre7.i, %strbuf_avail.exit.thread.i ], [ %.neg.i, %15 ]
  %17 = phi i64 [ %.pre.i, %strbuf_avail.exit.thread.i ], [ %14, %15 ]
  %18 = getelementptr inbounds nuw i8, ptr %4, i64 16
  %19 = load ptr, ptr %18, align 8, !tbaa !27
  store i64 %.pre-phi.i, ptr %13, align 8, !tbaa !31
  %20 = getelementptr inbounds nuw i8, ptr %19, i64 %17
  store i8 32, ptr %20, align 1, !tbaa !34
  %21 = load ptr, ptr %18, align 8, !tbaa !27
  %22 = load i64, ptr %13, align 8, !tbaa !31
  %23 = getelementptr inbounds nuw i8, ptr %21, i64 %22
  store i8 0, ptr %23, align 1, !tbaa !34
  %.pre = load i32, ptr %spec.store.select, align 8, !tbaa !146
  br label %24

24:                                               ; preds = %strbuf_addch.exit, %12
  %25 = phi i32 [ %.pre, %strbuf_addch.exit ], [ %11, %12 ]
  call void (ptr, ptr, ...) @strbuf_addf(ptr noundef nonnull %4, ptr noundef nonnull @.str.100, i32 noundef %25) #17
  %26 = load i8, ptr @curl_errorstr, align 16, !tbaa !34
  %.not15 = icmp eq i8 %26, 0
  br i1 %.not15, label %38, label %27

27:                                               ; preds = %24
  %28 = load i64, ptr %4, align 8, !tbaa !96
  %.not.i.i16 = icmp eq i64 %28, 0
  br i1 %.not.i.i16, label %strbuf_avail.exit.thread.i21, label %strbuf_avail.exit.i17

strbuf_avail.exit.i17:                            ; preds = %27
  %29 = load i64, ptr %13, align 8, !tbaa !31
  %.neg.i18 = add i64 %29, 1
  %.not.i19 = icmp eq i64 %28, %.neg.i18
  br i1 %.not.i19, label %strbuf_avail.exit.thread.i21, label %strbuf_addch.exit25

strbuf_avail.exit.thread.i21:                     ; preds = %strbuf_avail.exit.i17, %27
  call void @strbuf_grow(ptr noundef nonnull %4, i64 noundef 1) #17
  %.pre.i23 = load i64, ptr %13, align 8, !tbaa !31
  %.pre7.i24 = add i64 %.pre.i23, 1
  br label %strbuf_addch.exit25

strbuf_addch.exit25:                              ; preds = %strbuf_avail.exit.i17, %strbuf_avail.exit.thread.i21
  %.pre-phi.i20 = phi i64 [ %.pre7.i24, %strbuf_avail.exit.thread.i21 ], [ %.neg.i18, %strbuf_avail.exit.i17 ]
  %30 = phi i64 [ %.pre.i23, %strbuf_avail.exit.thread.i21 ], [ %29, %strbuf_avail.exit.i17 ]
  %31 = getelementptr inbounds nuw i8, ptr %4, i64 16
  %32 = load ptr, ptr %31, align 8, !tbaa !27
  store i64 %.pre-phi.i20, ptr %13, align 8, !tbaa !31
  %33 = getelementptr inbounds nuw i8, ptr %32, i64 %30
  store i8 32, ptr %33, align 1, !tbaa !34
  %34 = load ptr, ptr %31, align 8, !tbaa !27
  %35 = load i64, ptr %13, align 8, !tbaa !31
  %36 = getelementptr inbounds nuw i8, ptr %34, i64 %35
  store i8 0, ptr %36, align 1, !tbaa !34
  %37 = call i64 @strlen(ptr noundef nonnull dereferenceable(1) @curl_errorstr) #19
  call void @strbuf_add(ptr noundef nonnull %4, ptr noundef nonnull @curl_errorstr, i64 noundef %37) #17
  br label %38

38:                                               ; preds = %24, %strbuf_addch.exit25, %10
  %39 = load i32, ptr @git_gettext_enabled, align 4, !tbaa !4
  %.not4.i = icmp eq i32 %39, 0
  br i1 %.not4.i, label %_.exit, label %40

40:                                               ; preds = %38
  %41 = call ptr @dcgettext(ptr noundef null, ptr noundef nonnull @.str.101, i32 noundef 5) #17
  br label %_.exit

_.exit:                                           ; preds = %38, %40
  %.0.i = phi ptr [ %41, %40 ], [ @.str.101, %38 ]
  %42 = getelementptr inbounds nuw i8, ptr %4, i64 16
  %43 = load ptr, ptr %42, align 8, !tbaa !27
  %44 = call i32 (ptr, ...) @error(ptr noundef %.0.i, ptr noundef %43) #17
  call void @strbuf_release(ptr noundef nonnull %4) #17
  call void @llvm.lifetime.end.p0(i64 24, ptr nonnull %4) #17
  br label %45

45:                                               ; preds = %_.exit, %2
  call void @llvm.lifetime.end.p0(i64 32, ptr nonnull %3) #17
  ret i32 %5
}